; ModuleID = '27/738.cpp'
source_filename = "27/738.cpp"
target datalayout = "e-m:e-p270:32:32-p271:32:32-p272:64:64-i64:64-f80:128-n8:16:32:64-S128"
target triple = "x86_64-pc-linux-gnu"

%"class.std::ios_base::Init" = type { i8 }
%"class.std::basic_istream" = type { i32 (...)**, i64, %"class.std::basic_ios" }
%"class.std::basic_ios" = type { %"class.std::ios_base", %"class.std::basic_ostream"*, i8, i8, %"class.std::basic_streambuf"*, %"class.std::ctype"*, %"class.std::num_put"*, %"class.std::num_get"* }
%"class.std::ios_base" = type { i32 (...)**, i64, i64, i32, i32, i32, %"struct.std::ios_base::_Callback_list"*, %"struct.std::ios_base::_Words", [8 x %"struct.std::ios_base::_Words"], i32, %"struct.std::ios_base::_Words"*, %"class.std::locale" }
%"struct.std::ios_base::_Callback_list" = type { %"struct.std::ios_base::_Callback_list"*, void (i32, %"class.std::ios_base"*, i32)*, i32, i32 }
%"struct.std::ios_base::_Words" = type { i8*, i64 }
%"class.std::locale" = type { %"class.std::locale::_Impl"* }
%"class.std::locale::_Impl" = type { i32, %"class.std::locale::facet"**, i64, %"class.std::locale::facet"**, i8** }
%"class.std::locale::facet" = type <{ i32 (...)**, i32, [4 x i8] }>
%"class.std::basic_ostream" = type { i32 (...)**, %"class.std::basic_ios" }
%"class.std::basic_streambuf" = type { i32 (...)**, i8*, i8*, i8*, i8*, i8*, i8*, %"class.std::locale" }
%"class.std::ctype" = type <{ %"class.std::locale::facet.base", [4 x i8], %struct.__locale_struct*, i8, [7 x i8], i32*, i32*, i16*, i8, [256 x i8], [256 x i8], i8, [6 x i8] }>
%"class.std::locale::facet.base" = type <{ i32 (...)**, i32 }>
%struct.__locale_struct = type { [13 x %struct.__locale_data*], i16*, i32*, i32*, [13 x i8*] }
%struct.__locale_data = type opaque
%"class.std::num_put" = type { %"class.std::locale::facet.base", [4 x i8] }
%"class.std::num_get" = type { %"class.std::locale::facet.base", [4 x i8] }

$_ZSt3absd = comdat any

@_ZStL8__ioinit = internal global %"class.std::ios_base::Init" zeroinitializer, align 1
@__dso_handle = external hidden global i8
@_ZSt3cin = external dso_local global %"class.std::basic_istream", align 8
@.str = private unnamed_addr constant [11 x i8] c"x1=x2=%.5f\00", align 1
@.str.1 = private unnamed_addr constant [16 x i8] c"x1=%.5f;x2=%.5f\00", align 1
@.str.2 = private unnamed_addr constant [28 x i8] c"x1=%.5f+%.5fi;x2=%.5f-%.5fi\00", align 1
@.str.3 = private unnamed_addr constant [28 x i8] c"x1=%.5f-%.5fi;x2=%.5f+%.5fi\00", align 1
@_ZSt4cout = external dso_local global %"class.std::basic_ostream", align 8
@llvm.global_ctors = appending global [1 x { i32, void ()*, i8* }] [{ i32, void ()*, i8* } { i32 65535, void ()* @_GLOBAL__sub_I_738.cpp, i8* null }]

; Function Attrs: noinline uwtable
define internal void @__cxx_global_var_init() #0 section ".text.startup" {
  call void @_ZNSt8ios_base4InitC1Ev(%"class.std::ios_base::Init"* @_ZStL8__ioinit)
  %1 = call i32 @__cxa_atexit(void (i8*)* bitcast (void (%"class.std::ios_base::Init"*)* @_ZNSt8ios_base4InitD1Ev to void (i8*)*), i8* getelementptr inbounds (%"class.std::ios_base::Init", %"class.std::ios_base::Init"* @_ZStL8__ioinit, i32 0, i32 0), i8* @__dso_handle) #3
  ret void
}

declare dso_local void @_ZNSt8ios_base4InitC1Ev(%"class.std::ios_base::Init"*) unnamed_addr #1

; Function Attrs: nounwind
declare dso_local void @_ZNSt8ios_base4InitD1Ev(%"class.std::ios_base::Init"*) unnamed_addr #2

; Function Attrs: nounwind
declare dso_local i32 @__cxa_atexit(void (i8*)*, i8*, i8*) #3

; Function Attrs: noinline norecurse uwtable
define dso_local i32 @main() #4 {
  %1 = alloca i32, align 4
  %2 = alloca i32, align 4
  %3 = alloca i32, align 4
  %4 = alloca double, align 8
  %5 = alloca double, align 8
  %6 = alloca double, align 8
  %7 = alloca double, align 8
  %8 = alloca double, align 8
  store i32 0, i32* %1, align 4
  %9 = call dereferenceable(280) %"class.std::basic_istream"* @_ZNSirsERi(%"class.std::basic_istream"* @_ZSt3cin, i32* dereferenceable(4) %2)
  store i32 0, i32* %3, align 4
  br label %10

10:                                               ; preds = %105, %0
  %11 = load i32, i32* %3, align 4
  %12 = load i32, i32* %2, align 4
  %13 = icmp slt i32 %11, %12
  br i1 %13, label %14, label %108

14:                                               ; preds = %10
  %15 = call dereferenceable(280) %"class.std::basic_istream"* @_ZNSirsERd(%"class.std::basic_istream"* @_ZSt3cin, double* dereferenceable(8) %4)
  %16 = call dereferenceable(280) %"class.std::basic_istream"* @_ZNSirsERd(%"class.std::basic_istream"* %15, double* dereferenceable(8) %5)
  %17 = call dereferenceable(280) %"class.std::basic_istream"* @_ZNSirsERd(%"class.std::basic_istream"* %16, double* dereferenceable(8) %6)
  %18 = load double, double* %5, align 8
  %19 = load double, double* %5, align 8
  %20 = fmul double %18, %19
  %21 = load double, double* %4, align 8
  %22 = fmul double 4.000000e+00, %21
  %23 = load double, double* %6, align 8
  %24 = fmul double %22, %23
  %25 = fsub double %20, %24
  store double %25, double* %7, align 8
  %26 = load double, double* %7, align 8
  %27 = call double @_ZSt3absd(double %26)
  %28 = fcmp olt double %27, 1.000000e-08
  br i1 %28, label %29, label %30

29:                                               ; preds = %14
  store double 0.000000e+00, double* %7, align 8
  br label %30

30:                                               ; preds = %29, %14
  %31 = load double, double* %5, align 8
  %32 = fneg double %31
  %33 = fdiv double %32, 2.000000e+00
  %34 = load double, double* %4, align 8
  %35 = fdiv double %33, %34
  store double %35, double* %8, align 8
  %36 = load double, double* %8, align 8
  %37 = call double @_ZSt3absd(double %36)
  %38 = fcmp olt double %37, 1.000000e-08
  br i1 %38, label %39, label %40

39:                                               ; preds = %30
  store double 0.000000e+00, double* %8, align 8
  br label %40

40:                                               ; preds = %39, %30
  %41 = load double, double* %7, align 8
  %42 = call double @_ZSt3absd(double %41)
  %43 = fcmp olt double %42, 1.000000e-08
  br i1 %43, label %44, label %47

44:                                               ; preds = %40
  %45 = load double, double* %8, align 8
  %46 = call i32 (i8*, ...) @printf(i8* getelementptr inbounds ([11 x i8], [11 x i8]* @.str, i64 0, i64 0), double %45)
  br label %103

47:                                               ; preds = %40
  %48 = load double, double* %7, align 8
  %49 = fcmp ogt double %48, 0.000000e+00
  br i1 %49, label %50, label %66

50:                                               ; preds = %47
  %51 = load double, double* %8, align 8
  %52 = load double, double* %7, align 8
  %53 = call double @sqrt(double %52) #3
  %54 = fdiv double %53, 2.000000e+00
  %55 = load double, double* %4, align 8
  %56 = fdiv double %54, %55
  %57 = fadd double %51, %56
  %58 = load double, double* %8, align 8
  %59 = load double, double* %7, align 8
  %60 = call double @sqrt(double %59) #3
  %61 = fdiv double %60, 2.000000e+00
  %62 = load double, double* %4, align 8
  %63 = fdiv double %61, %62
  %64 = fsub double %58, %63
  %65 = call i32 (i8*, ...) @printf(i8* getelementptr inbounds ([16 x i8], [16 x i8]* @.str.1, i64 0, i64 0), double %57, double %64)
  br label %102

66:                                               ; preds = %47
  %67 = load double, double* %7, align 8
  %68 = call double @_ZSt3absd(double %67)
  store double %68, double* %7, align 8
  %69 = load double, double* %4, align 8
  %70 = fcmp ogt double %69, 0.000000e+00
  br i1 %70, label %71, label %85

71:                                               ; preds = %66
  %72 = load double, double* %8, align 8
  %73 = load double, double* %7, align 8
  %74 = call double @sqrt(double %73) #3
  %75 = fdiv double %74, 2.000000e+00
  %76 = load double, double* %4, align 8
  %77 = fdiv double %75, %76
  %78 = load double, double* %8, align 8
  %79 = load double, double* %7, align 8
  %80 = call double @sqrt(double %79) #3
  %81 = fdiv double %80, 2.000000e+00
  %82 = load double, double* %4, align 8
  %83 = fdiv double %81, %82
  %84 = call i32 (i8*, ...) @printf(i8* getelementptr inbounds ([28 x i8], [28 x i8]* @.str.2, i64 0, i64 0), double %72, double %77, double %78, double %83)
  br label %101

85:                                               ; preds = %66
  %86 = load double, double* %8, align 8
  %87 = load double, double* %7, align 8
  %88 = call double @sqrt(double %87) #3
  %89 = fneg double %88
  %90 = fdiv double %89, 2.000000e+00
  %91 = load double, double* %4, align 8
  %92 = fdiv double %90, %91
  %93 = load double, double* %8, align 8
  %94 = load double, double* %7, align 8
  %95 = call double @sqrt(double %94) #3
  %96 = fneg double %95
  %97 = fdiv double %96, 2.000000e+00
  %98 = load double, double* %4, align 8
  %99 = fdiv double %97, %98
  %100 = call i32 (i8*, ...) @printf(i8* getelementptr inbounds ([28 x i8], [28 x i8]* @.str.3, i64 0, i64 0), double %86, double %92, double %93, double %99)
  br label %101

101:                                              ; preds = %85, %71
  br label %102

102:                                              ; preds = %101, %50
  br label %103

103:                                              ; preds = %102, %44
  %104 = call dereferenceable(272) %"class.std::basic_ostream"* @_ZNSolsEPFRSoS_E(%"class.std::basic_ostream"* @_ZSt4cout, %"class.std::basic_ostream"* (%"class.std::basic_ostream"*)* @_ZSt4endlIcSt11char_traitsIcEERSt13basic_ostreamIT_T0_ES6_)
  br label %105

105:                                              ; preds = %103
  %106 = load i32, i32* %3, align 4
  %107 = add nsw i32 %106, 1
  store i32 %107, i32* %3, align 4
  br label %10

108:                                              ; preds = %10
  ret i32 0
}

declare dso_local dereferenceable(280) %"class.std::basic_istream"* @_ZNSirsERi(%"class.std::basic_istream"*, i32* dereferenceable(4)) #1

declare dso_local dereferenceable(280) %"class.std::basic_istream"* @_ZNSirsERd(%"class.std::basic_istream"*, double* dereferenceable(8)) #1

; Function Attrs: noinline nounwind uwtable
define linkonce_odr dso_local double @_ZSt3absd(double %0) #5 comdat {
  %2 = alloca double, align 8
  store double %0, double* %2, align 8
  %3 = load double, double* %2, align 8
  %4 = call double @llvm.fabs.f64(double %3)
  ret double %4
}

declare dso_local i32 @printf(i8*, ...) #1

; Function Attrs: nounwind
declare dso_local double @sqrt(double) #2

declare dso_local dereferenceable(272) %"class.std::basic_ostream"* @_ZNSolsEPFRSoS_E(%"class.std::basic_ostream"*, %"class.std::basic_ostream"* (%"class.std::basic_ostream"*)*) #1

declare dso_local dereferenceable(272) %"class.std::basic_ostream"* @_ZSt4endlIcSt11char_traitsIcEERSt13basic_ostreamIT_T0_ES6_(%"class.std::basic_ostream"* dereferenceable(272)) #1

; Function Attrs: nounwind readnone speculatable willreturn
declare double @llvm.fabs.f64(double) #6

; Function Attrs: noinline uwtable
define internal void @_GLOBAL__sub_I_738.cpp() #0 section ".text.startup" {
  call void @__cxx_global_var_init()
  ret void
}


!llvm.module.flags = !{!0}
!llvm.ident = !{!1}

!0 = !{i32 1, !"wchar_size", i32 4}
!1 = !{!"clang version 10.0.0-4ubuntu1 "}
